target datalayout = "e-m:e-p270:32:32-p271:32:32-p272:64:64-i64:64-i128:128-f80:128-n8:16:32:64-S128"
target triple = "x86_64-pc-linux-gnu"

%struct.mz_zip_archive = type { i64, i64, i32, i32, i32, i32, i64, ptr, ptr, ptr, ptr, ptr, ptr, ptr, ptr, ptr }
%struct.mz_zip_internal_state_tag = type { %struct.mz_zip_array, %struct.mz_zip_array, %struct.mz_zip_array, i32, i32, i32, ptr, i64, ptr, i64, i64 }
%struct.mz_zip_array = type { ptr, i64, i64, i32 }
%struct.mz_zip_archive_file_stat = type { i32, i64, i16, i16, i16, i16, i32, i64, i64, i16, i32, i64, i32, i32, i32, i32, [512 x i8], [512 x i8], i64 }

; Function Attrs: alwaysinline nounwind uwtable
define internal ptr @mz_zip_get_cdh(ptr noundef %0, i32 noundef %1) #7 {
  %3 = alloca ptr, align 8
  %4 = alloca ptr, align 8
  %5 = alloca i32, align 4
  store ptr %0, ptr %4, align 8
  store i32 %1, ptr %5, align 4
  %6 = load ptr, ptr %4, align 8
  %7 = icmp ne ptr %6, null
  br i1 %7, label %8, label %19

8:                                                ; preds = %2
  %9 = load ptr, ptr %4, align 8
  %10 = getelementptr inbounds nuw %struct.mz_zip_archive, ptr %9, i32 0, i32 15
  %11 = load ptr, ptr %10, align 8
  %12 = icmp ne ptr %11, null
  br i1 %12, label %13, label %19

13:                                               ; preds = %8
  %14 = load i32, ptr %5, align 4
  %15 = load ptr, ptr %4, align 8
  %16 = getelementptr inbounds nuw %struct.mz_zip_archive, ptr %15, i32 0, i32 2
  %17 = load i32, ptr %16, align 8
  %18 = icmp uge i32 %14, %17
  br i1 %18, label %19, label %20

19:                                               ; preds = %13, %8, %2
  store ptr null, ptr %3, align 8
  br label %39

20:                                               ; preds = %13
  %21 = load ptr, ptr %4, align 8
  %22 = getelementptr inbounds nuw %struct.mz_zip_archive, ptr %21, i32 0, i32 15
  %23 = load ptr, ptr %22, align 8
  %24 = getelementptr inbounds nuw %struct.mz_zip_internal_state_tag, ptr %23, i32 0, i32 0
  %25 = getelementptr inbounds nuw %struct.mz_zip_array, ptr %24, i32 0, i32 0
  %26 = load ptr, ptr %25, align 8
  %27 = load ptr, ptr %4, align 8
  %28 = getelementptr inbounds nuw %struct.mz_zip_archive, ptr %27, i32 0, i32 15
  %29 = load ptr, ptr %28, align 8
  %30 = getelementptr inbounds nuw %struct.mz_zip_internal_state_tag, ptr %29, i32 0, i32 1
  %31 = getelementptr inbounds nuw %struct.mz_zip_array, ptr %30, i32 0, i32 0
  %32 = load ptr, ptr %31, align 8
  %33 = load i32, ptr %5, align 4
  %34 = zext i32 %33 to i64
  %35 = getelementptr inbounds nuw i32, ptr %32, i64 %34
  %36 = load i32, ptr %35, align 4
  %37 = zext i32 %36 to i64
  %38 = getelementptr inbounds nuw i8, ptr %26, i64 %37
  store ptr %38, ptr %3, align 8
  br label %39

39:                                               ; preds = %20, %19
  %40 = load ptr, ptr %3, align 8
  ret ptr %40
}

; Function Attrs: alwaysinline nounwind uwtable
define internal i32 @mz_zip_set_error(ptr noundef %0, i32 noundef %1) #7 {
  %3 = alloca ptr, align 8
  %4 = alloca i32, align 4
  store ptr %0, ptr %3, align 8
  store i32 %1, ptr %4, align 4
  %5 = load ptr, ptr %3, align 8
  %6 = icmp ne ptr %5, null
  br i1 %6, label %7, label %11

7:                                                ; preds = %2
  %8 = load i32, ptr %4, align 4
  %9 = load ptr, ptr %3, align 8
  %10 = getelementptr inbounds nuw %struct.mz_zip_archive, ptr %9, i32 0, i32 5
  store i32 %8, ptr %10, align 4
  br label %11

11:                                               ; preds = %7, %2
  ret i32 0
}

; Function Attrs: nounwind uwtable
define i32 @mz_zip_reader_file_stat(ptr noundef %0, i32 noundef %1, ptr noundef %2) #0 {
  %4 = alloca ptr, align 8
  %5 = alloca i32, align 4
  %6 = alloca ptr, align 8
  store ptr %0, ptr %4, align 8
  store i32 %1, ptr %5, align 4
  store ptr %2, ptr %6, align 8
  %7 = load ptr, ptr %4, align 8
  %8 = load i32, ptr %5, align 4
  %9 = load ptr, ptr %4, align 8
  %10 = load i32, ptr %5, align 4
  %11 = call ptr @mz_zip_get_cdh(ptr noundef %9, i32 noundef %10)
  %12 = load ptr, ptr %6, align 8
  %13 = call i32 @mz_zip_file_stat_internal(ptr noundef %7, i32 noundef %8, ptr noundef %11, ptr noundef %12, ptr noundef null)
  ret i32 %13
}

; Function Attrs: nounwind uwtable
define i32 @mz_zip_reader_extract_to_cfile(ptr noundef %0, i32 noundef %1, ptr noundef %2, i32 noundef %3) #0 {
  %5 = alloca i32, align 4
  %6 = alloca ptr, align 8
  %7 = alloca i32, align 4
  %8 = alloca ptr, align 8
  %9 = alloca i32, align 4
  %10 = alloca %struct.mz_zip_archive_file_stat, align 8
  %11 = alloca i32, align 4
  store ptr %0, ptr %6, align 8
  store i32 %1, ptr %7, align 4
  store ptr %2, ptr %8, align 8
  store i32 %3, ptr %9, align 4
  call void @llvm.lifetime.start.p0(i64 1112, ptr %10) #13
  %12 = load ptr, ptr %6, align 8
  %13 = load i32, ptr %7, align 4
  %14 = call i32 @mz_zip_reader_file_stat(ptr noundef %12, i32 noundef %13, ptr noundef %10)
  %15 = icmp ne i32 %14, 0
  br i1 %15, label %17, label %16

16:                                               ; preds = %4
  store i32 0, ptr %5, align 4
  store i32 1, ptr %11, align 4
  br label %34

17:                                               ; preds = %4
  %18 = getelementptr inbounds nuw %struct.mz_zip_archive_file_stat, ptr %10, i32 0, i32 13
  %19 = load i32, ptr %18, align 4
  %20 = icmp ne i32 %19, 0
  br i1 %20, label %25, label %21

21:                                               ; preds = %17
  %22 = getelementptr inbounds nuw %struct.mz_zip_archive_file_stat, ptr %10, i32 0, i32 15
  %23 = load i32, ptr %22, align 4
  %24 = icmp ne i32 %23, 0
  br i1 %24, label %28, label %25

25:                                               ; preds = %21, %17
  %26 = load ptr, ptr %6, align 8
  %27 = call i32 @mz_zip_set_error(ptr noundef %26, i32 noundef 6)
  store i32 %27, ptr %5, align 4
  store i32 1, ptr %11, align 4
  br label %34

28:                                               ; preds = %21
  %29 = load ptr, ptr %6, align 8
  %30 = load i32, ptr %7, align 4
  %31 = load ptr, ptr %8, align 8
  %32 = load i32, ptr %9, align 4
  %33 = call i32 @mz_zip_reader_extract_to_callback(ptr noundef %29, i32 noundef %30, ptr noundef @mz_zip_file_write_callback, ptr noundef %31, i32 noundef %32)
  store i32 %33, ptr %5, align 4
  store i32 1, ptr %11, align 4
  br label %34

34:                                               ; preds = %28, %25, %16
  call void @llvm.lifetime.end.p0(i64 1112, ptr %10) #13
  %35 = load i32, ptr %5, align 4
  ret i32 %35
}

; Function Attrs: nounwind uwtable
define i32 @mz_zip_reader_extract_file_to_cfile(ptr noundef %0, ptr noundef %1, ptr noundef %2, i32 noundef %3) #0 {
  %5 = alloca i32, align 4
  %6 = alloca ptr, align 8
  %7 = alloca ptr, align 8
  %8 = alloca ptr, align 8
  %9 = alloca i32, align 4
  %10 = alloca i32, align 4
  %11 = alloca i32, align 4
  store ptr %0, ptr %6, align 8
  store ptr %1, ptr %7, align 8
  store ptr %2, ptr %8, align 8
  store i32 %3, ptr %9, align 4
  call void @llvm.lifetime.start.p0(i64 4, ptr %10) #13
  %12 = load ptr, ptr %6, align 8
  %13 = load ptr, ptr %7, align 8
  %14 = load i32, ptr %9, align 4
  %15 = call i32 @mz_zip_reader_locate_file_v2(ptr noundef %12, ptr noundef %13, ptr noundef null, i32 noundef %14, ptr noundef %10)
  %16 = icmp ne i32 %15, 0
  br i1 %16, label %18, label %17

17:                                               ; preds = %4
  store i32 0, ptr %5, align 4
  store i32 1, ptr %11, align 4
  br label %24

18:                                               ; preds = %4
  %19 = load ptr, ptr %6, align 8
  %20 = load i32, ptr %10, align 4
  %21 = load ptr, ptr %8, align 8
  %22 = load i32, ptr %9, align 4
  %23 = call i32 @mz_zip_reader_extract_to_cfile(ptr noundef %19, i32 noundef %20, ptr noundef %21, i32 noundef %22)
  store i32 %23, ptr %5, align 4
  store i32 1, ptr %11, align 4
  br label %24

24:                                               ; preds = %18, %17
  call void @llvm.lifetime.end.p0(i64 4, ptr %10) #13
  %25 = load i32, ptr %5, align 4
  ret i32 %25
}