; Function Attrs: nounwind uwtable
define range(i32 0, 2) i32 @mz_zip_reader_extract_file_to_cfile(ptr noundef captures(address_is_null) %0, ptr noundef captures(address_is_null) %1, ptr noundef %2, i32 noundef %3) local_unnamed_addr #8 {
  %5 = alloca %struct.mz_zip_archive_file_stat, align 8
  %6 = alloca i32, align 4
  call void @llvm.lifetime.start.p0(i64 4, ptr nonnull %6) #34
  %7 = call i32 @mz_zip_reader_locate_file_v2(ptr noundef %0, ptr noundef %1, ptr noundef null, i32 noundef %3, ptr noundef nonnull %6)
  %.not = icmp eq i32 %7, 0
  br i1 %.not, label %38, label %8

8:                                                ; preds = %4
  %9 = load i32, ptr %6, align 4
  call void @llvm.lifetime.start.p0(i64 1112, ptr nonnull %5) #34
  %.not.i.i.i = icmp eq ptr %0, null
  br i1 %.not.i.i.i, label %mz_zip_reader_file_stat.exit.i, label %10

10:                                               ; preds = %8
  %11 = getelementptr inbounds nuw i8, ptr %0, i64 104
  %12 = load ptr, ptr %11, align 8
  %.not10.i.i.i = icmp eq ptr %12, null
  br i1 %.not10.i.i.i, label %mz_zip_reader_file_stat.exit.i, label %13

13:                                               ; preds = %10
  %14 = getelementptr inbounds nuw i8, ptr %0, i64 16
  %15 = load i32, ptr %14, align 8
  %.not11.i.i.i = icmp ult i32 %9, %15
  br i1 %.not11.i.i.i, label %16, label %mz_zip_reader_file_stat.exit.i

16:                                               ; preds = %13
  %17 = load ptr, ptr %12, align 8
  %18 = getelementptr inbounds nuw i8, ptr %12, i64 32
  %19 = load ptr, ptr %18, align 8
  %20 = zext i32 %9 to i64
  %21 = getelementptr inbounds nuw i32, ptr %19, i64 %20
  %22 = load i32, ptr %21, align 4
  %23 = zext i32 %22 to i64
  %24 = getelementptr inbounds nuw i8, ptr %17, i64 %23
  br label %mz_zip_reader_file_stat.exit.i

mz_zip_reader_file_stat.exit.i:                   ; preds = %16, %13, %10, %8
  %.0.i.i.i = phi ptr [ %24, %16 ], [ null, %13 ], [ null, %10 ], [ null, %8 ]
  %25 = call fastcc range(i32 0, 2) i32 @mz_zip_file_stat_internal(ptr noundef %0, i32 noundef %9, ptr noundef %.0.i.i.i, ptr noundef nonnull %5, ptr noundef null)
  %.not.i = icmp eq i32 %25, 0
  br i1 %.not.i, label %mz_zip_reader_extract_to_cfile.exit, label %26

26:                                               ; preds = %mz_zip_reader_file_stat.exit.i
  %27 = getelementptr inbounds nuw i8, ptr %5, i64 68
  %28 = load i32, ptr %27, align 4
  %29 = icmp eq i32 %28, 0
  %30 = getelementptr inbounds nuw i8, ptr %5, i64 76
  %31 = load i32, ptr %30, align 4
  %32 = icmp ne i32 %31, 0
  %or.cond.i = select i1 %29, i1 %32, i1 false
  br i1 %or.cond.i, label %36, label %33

33:                                               ; preds = %26
  br i1 %.not.i.i.i, label %mz_zip_reader_extract_to_cfile.exit, label %34

34:                                               ; preds = %33
  %35 = getelementptr inbounds nuw i8, ptr %0, i64 28
  store i32 6, ptr %35, align 4
  br label %mz_zip_reader_extract_to_cfile.exit

36:                                               ; preds = %26
  %37 = call i32 @mz_zip_reader_extract_to_callback(ptr noundef %0, i32 noundef %9, ptr noundef nonnull @mz_zip_file_write_callback, ptr noundef %2, i32 noundef %3)
  br label %mz_zip_reader_extract_to_cfile.exit

mz_zip_reader_extract_to_cfile.exit:              ; preds = %mz_zip_reader_file_stat.exit.i, %33, %34, %36
  %.0.i = phi i32 [ %37, %36 ], [ 0, %mz_zip_reader_file_stat.exit.i ], [ 0, %33 ], [ 0, %34 ]
  call void @llvm.lifetime.end.p0(i64 1112, ptr nonnull %5) #34
  br label %38

38:                                               ; preds = %4, %mz_zip_reader_extract_to_cfile.exit
  %.0 = phi i32 [ %.0.i, %mz_zip_reader_extract_to_cfile.exit ], [ 0, %4 ]
  call void @llvm.lifetime.end.p0(i64 4, ptr nonnull %6) #34
  ret i32 %.0
}